; ModuleID = 'bench/gromacs/original/booltype.cpp.ll'
source_filename = "bench/gromacs/original/booltype.cpp.ll"
target datalayout = "e-m:e-p270:32:32-p271:32:32-p272:64:64-i64:64-i128:128-f80:128-n8:16:32:64-S128"
target triple = "x86_64-pc-linux-gnu"

%"struct.gmx::BoolType" = type { i8 }

@_ZN3gmx8BoolTypeC1Eb = unnamed_addr alias void (ptr, i1), ptr @_ZN3gmx8BoolTypeC2Eb

; Function Attrs: mustprogress nofree norecurse nosync nounwind willreturn memory(argmem: write) uwtable
define void @_ZN3gmx8BoolTypeC2Eb(ptr nocapture noundef nonnull writeonly align 1 dereferenceable(1) %0, i1 noundef zeroext %1) unnamed_addr #0 align 2 {
  %3 = zext i1 %1 to i8
  store i8 %3, ptr %0, align 1
  ret void
}

; Function Attrs: mustprogress nofree norecurse nosync nounwind willreturn memory(argmem: read) uwtable
define { ptr, ptr } @_ZN3gmx12makeArrayRefERSt6vectorINS_8BoolTypeESaIS1_EE(ptr nocapture noundef nonnull readonly align 8 dereferenceable(24) %0) local_unnamed_addr #1 {
  %2 = load ptr, ptr %0, align 8
  %3 = getelementptr inbounds i8, ptr %0, i64 8
  %4 = load ptr, ptr %3, align 8
  %5 = ptrtoint ptr %4 to i64
  %6 = ptrtoint ptr %2 to i64
  %7 = sub i64 %5, %6
  %8 = getelementptr inbounds %"struct.gmx::BoolType", ptr %2, i64 %7
  %.fca.0.insert = insertvalue { ptr, ptr } poison, ptr %2, 0
  %.fca.1.insert = insertvalue { ptr, ptr } %.fca.0.insert, ptr %8, 1
  ret { ptr, ptr } %.fca.1.insert
}

; Function Attrs: mustprogress nofree norecurse nosync nounwind willreturn memory(argmem: read) uwtable
define { ptr, ptr } @_ZN3gmx17makeConstArrayRefERKSt6vectorINS_8BoolTypeESaIS1_EE(ptr nocapture noundef nonnull readonly align 8 dereferenceable(24) %0) local_unnamed_addr #1 {
  %2 = load ptr, ptr %0, align 8
  %3 = getelementptr inbounds i8, ptr %0, i64 8
  %4 = load ptr, ptr %3, align 8
  %5 = ptrtoint ptr %4 to i64
  %6 = ptrtoint ptr %2 to i64
  %7 = sub i64 %5, %6
  %8 = getelementptr inbounds %"struct.gmx::BoolType", ptr %2, i64 %7
  %.fca.0.insert = insertvalue { ptr, ptr } poison, ptr %2, 0
  %.fca.1.insert = insertvalue { ptr, ptr } %.fca.0.insert, ptr %8, 1
  ret { ptr, ptr } %.fca.1.insert
}


!llvm.module.flags = !{!0, !1, !2, !3, !4}

!0 = !{i32 1, !"wchar_size", i32 4}
!1 = !{i32 7, !"openmp", i32 51}
!2 = !{i32 8, !"PIC Level", i32 2}
!3 = !{i32 7, !"uwtable", i32 2}
!4 = !{i32 7, !"frame-pointer", i32 2}
